; Function Attrs: mustprogress uwtable
define void @_ZN11GLLogStream3logEiPKc(ptr noundef nonnull align 8 dereferenceable(40) %0, i32 noundef %1, ptr noundef %2) local_unnamed_addr #0 align 2 personality ptr @__gxx_personality_v0 {
  %4 = alloca %class.QString, align 8
  %5 = alloca %"struct.std::pair", align 8
  %6 = alloca %class.QMessageLogger, align 8
  %.not.i = icmp eq ptr %2, null
  br i1 %.not.i, label %_ZN7QStringC2EPKc.exit, label %7

7:                                                ; preds = %3
  %8 = tail call i64 @strlen(ptr noundef nonnull dereferenceable(1) %2) #21
  %9 = trunc i64 %8 to i32
  br label %_ZN7QStringC2EPKc.exit

_ZN7QStringC2EPKc.exit:                           ; preds = %3, %7
  %10 = phi i32 [ %9, %7 ], [ -1, %3 ]
  %11 = tail call noundef ptr @_ZN7QString16fromAscii_helperEPKci(ptr noundef %2, i32 noundef %10)
  store ptr %11, ptr %4, align 8
  tail call void @llvm.experimental.noalias.scope.decl(metadata !36)
  store i32 %1, ptr %5, align 8, !alias.scope !36
  %12 = getelementptr inbounds i8, ptr %5, i64 8
  store ptr %11, ptr %12, align 8, !alias.scope !36
  %13 = load atomic i32, ptr %11 monotonic, align 4, !noalias !36
  %14 = add i32 %13, -1
  %or.cond.not.i.i.i.i = icmp ult i32 %14, -2
  br i1 %or.cond.not.i.i.i.i, label %15, label %_ZSt9make_pairIRiR7QStringESt4pairINSt25__strip_reference_wrapperINSt5decayIT_E4typeEE6__typeENS4_INS5_IT0_E4typeEE6__typeEEOS6_OSB_.exit

15:                                               ; preds = %_ZN7QStringC2EPKc.exit
  %16 = atomicrmw add ptr %11, i32 1 seq_cst, align 4, !noalias !36
  br label %_ZSt9make_pairIRiR7QStringESt4pairINSt25__strip_reference_wrapperINSt5decayIT_E4typeEE6__typeENS4_INS5_IT0_E4typeEE6__typeEEOS6_OSB_.exit

_ZSt9make_pairIRiR7QStringESt4pairINSt25__strip_reference_wrapperINSt5decayIT_E4typeEE6__typeENS4_INS5_IT0_E4typeEE6__typeEEOS6_OSB_.exit: ; preds = %15, %_ZN7QStringC2EPKc.exit
  %17 = getelementptr inbounds i8, ptr %0, i64 24
  invoke void @_ZN5QListISt4pairIi7QStringEE6appendERKS2_(ptr noundef nonnull align 8 dereferenceable(8) %17, ptr noundef nonnull align 8 dereferenceable(16) %5)
          to label %_ZN5QListISt4pairIi7QStringEE9push_backERKS2_.exit unwind label %32

_ZN5QListISt4pairIi7QStringEE9push_backERKS2_.exit: ; preds = %_ZSt9make_pairIRiR7QStringESt4pairINSt25__strip_reference_wrapperINSt5decayIT_E4typeEE6__typeENS4_INS5_IT0_E4typeEE6__typeEEOS6_OSB_.exit
  %18 = load ptr, ptr %12, align 8
  %19 = load atomic i32, ptr %18 monotonic, align 4
  switch i32 %19, label %_ZN9QtPrivate8RefCount5derefEv.exit.i.i [
    i32 0, label %_ZN9QtPrivate8RefCount5derefEv.exit.thread2.i.i
    i32 -1, label %_ZNSt4pairIi7QStringED2Ev.exit
  ]

_ZN9QtPrivate8RefCount5derefEv.exit.i.i:          ; preds = %_ZN5QListISt4pairIi7QStringEE9push_backERKS2_.exit
  %20 = atomicrmw sub ptr %18, i32 1 seq_cst, align 4
  %.not.i.i = icmp eq i32 %20, 1
  br i1 %.not.i.i, label %_ZN9QtPrivate8RefCount5derefEv.exit._ZN9QtPrivate8RefCount5derefEv.exit.thread2_crit_edge.i.i, label %_ZNSt4pairIi7QStringED2Ev.exit

_ZN9QtPrivate8RefCount5derefEv.exit._ZN9QtPrivate8RefCount5derefEv.exit.thread2_crit_edge.i.i: ; preds = %_ZN9QtPrivate8RefCount5derefEv.exit.i.i
  %.pre.i.i = load ptr, ptr %12, align 8
  br label %_ZN9QtPrivate8RefCount5derefEv.exit.thread2.i.i

_ZN9QtPrivate8RefCount5derefEv.exit.thread2.i.i:  ; preds = %_ZN9QtPrivate8RefCount5derefEv.exit._ZN9QtPrivate8RefCount5derefEv.exit.thread2_crit_edge.i.i, %_ZN5QListISt4pairIi7QStringEE9push_backERKS2_.exit
  %21 = phi ptr [ %.pre.i.i, %_ZN9QtPrivate8RefCount5derefEv.exit._ZN9QtPrivate8RefCount5derefEv.exit.thread2_crit_edge.i.i ], [ %18, %_ZN5QListISt4pairIi7QStringEE9push_backERKS2_.exit ]
  call void @_ZN10QArrayData10deallocateEPS_mm(ptr noundef %21, i64 noundef 2, i64 noundef 8) #16
  br label %_ZNSt4pairIi7QStringED2Ev.exit

_ZNSt4pairIi7QStringED2Ev.exit:                   ; preds = %_ZN5QListISt4pairIi7QStringEE9push_backERKS2_.exit, %_ZN9QtPrivate8RefCount5derefEv.exit.i.i, %_ZN9QtPrivate8RefCount5derefEv.exit.thread2.i.i
  store i32 2, ptr %6, align 8
  %22 = getelementptr inbounds i8, ptr %6, i64 4
  %23 = getelementptr inbounds i8, ptr %6, i64 24
  call void @llvm.memset.p0.i64(ptr noundef nonnull align 4 dereferenceable(20) %22, i8 0, i64 20, i1 false)
  store ptr @.str.3, ptr %23, align 8
  invoke void (ptr, ptr, ...) @_ZNK14QMessageLogger5debugEPKcz(ptr noundef nonnull align 8 dereferenceable(32) %6, ptr noundef nonnull @.str.2, i32 noundef %1, ptr noundef %2)
          to label %24 unwind label %30

24:                                               ; preds = %_ZNSt4pairIi7QStringED2Ev.exit
  invoke void @_ZN11GLLogStream10logUpdatedEv(ptr noundef nonnull align 8 dereferenceable(40) %0)
          to label %25 unwind label %30

25:                                               ; preds = %24
  %26 = load ptr, ptr %4, align 8
  %27 = load atomic i32, ptr %26 monotonic, align 4
  switch i32 %27, label %_ZN9QtPrivate8RefCount5derefEv.exit.i [
    i32 0, label %_ZN9QtPrivate8RefCount5derefEv.exit.thread2.i
    i32 -1, label %_ZN7QStringD2Ev.exit
  ]

_ZN9QtPrivate8RefCount5derefEv.exit.i:            ; preds = %25
  %28 = atomicrmw sub ptr %26, i32 1 seq_cst, align 4
  %.not.i6 = icmp eq i32 %28, 1
  br i1 %.not.i6, label %_ZN9QtPrivate8RefCount5derefEv.exit._ZN9QtPrivate8RefCount5derefEv.exit.thread2_crit_edge.i, label %_ZN7QStringD2Ev.exit

_ZN9QtPrivate8RefCount5derefEv.exit._ZN9QtPrivate8RefCount5derefEv.exit.thread2_crit_edge.i: ; preds = %_ZN9QtPrivate8RefCount5derefEv.exit.i
  %.pre.i = load ptr, ptr %4, align 8
  br label %_ZN9QtPrivate8RefCount5derefEv.exit.thread2.i

_ZN9QtPrivate8RefCount5derefEv.exit.thread2.i:    ; preds = %_ZN9QtPrivate8RefCount5derefEv.exit._ZN9QtPrivate8RefCount5derefEv.exit.thread2_crit_edge.i, %25
  %29 = phi ptr [ %.pre.i, %_ZN9QtPrivate8RefCount5derefEv.exit._ZN9QtPrivate8RefCount5derefEv.exit.thread2_crit_edge.i ], [ %26, %25 ]
  call void @_ZN10QArrayData10deallocateEPS_mm(ptr noundef %29, i64 noundef 2, i64 noundef 8) #16
  br label %_ZN7QStringD2Ev.exit

_ZN7QStringD2Ev.exit:                             ; preds = %25, %_ZN9QtPrivate8RefCount5derefEv.exit.i, %_ZN9QtPrivate8RefCount5derefEv.exit.thread2.i
  ret void

30:                                               ; preds = %24, %_ZNSt4pairIi7QStringED2Ev.exit
  %31 = landingpad { ptr, i32 }
          cleanup
  br label %34

32:                                               ; preds = %_ZSt9make_pairIRiR7QStringESt4pairINSt25__strip_reference_wrapperINSt5decayIT_E4typeEE6__typeENS4_INS5_IT0_E4typeEE6__typeEEOS6_OSB_.exit
  %33 = landingpad { ptr, i32 }
          cleanup
  call void @_ZNSt4pairIi7QStringED2Ev(ptr noundef nonnull align 8 dereferenceable(16) %5) #16
  br label %34

34:                                               ; preds = %32, %30
  %.pn = phi { ptr, i32 } [ %31, %30 ], [ %33, %32 ]
  call void @_ZN7QStringD2Ev(ptr noundef nonnull align 8 dereferenceable(8) %4) #16
  resume { ptr, i32 } %.pn
}